target datalayout = "e-m:e-p270:32:32-p271:32:32-p272:64:64-i64:64-i128:128-f80:128-n8:16:32:64-S128"
target triple = "x86_64-unknown-linux-gnu"

%struct.Hmac = type { %union.wc_HmacHash, [36 x i32], [36 x i32], [16 x i32], ptr, i8, i8 }
%union.wc_HmacHash = type { %struct.wc_Sha3 }
%struct.wc_Sha3 = type { [25 x i64], [200 x i8], i8, ptr }

; Function Attrs: nounwind uwtable
define i32 @_InitHmac(ptr noundef %hmac, i32 noundef %type, ptr noundef %heap) #0 {
entry:
  %hmac.addr = alloca ptr, align 8
  %type.addr = alloca i32, align 4
  %heap.addr = alloca ptr, align 8
  %ret = alloca i32, align 4
  %devId = alloca i32, align 4
  store ptr %hmac, ptr %hmac.addr, align 8
  store i32 %type, ptr %type.addr, align 4
  store ptr %heap, ptr %heap.addr, align 8
  store i32 0, ptr %ret, align 4
  store i32 -2, ptr %devId, align 4
  %0 = load i32, ptr %type.addr, align 4
  switch i32 %0, label %sw.default [
    i32 3, label %sw.bb
    i32 4, label %sw.bb1
    i32 5, label %sw.bb4
    i32 6, label %sw.bb7
    i32 7, label %sw.bb10
    i32 8, label %sw.bb13
    i32 10, label %sw.bb16
    i32 11, label %sw.bb19
    i32 12, label %sw.bb22
    i32 13, label %sw.bb25
  ]

sw.bb:                                            ; preds = %entry
  %1 = load ptr, ptr %hmac.addr, align 8
  %hash = getelementptr inbounds %struct.Hmac, ptr %1, i32 0, i32 0
  %2 = load ptr, ptr %heap.addr, align 8
  %3 = load i32, ptr %devId, align 4
  %call = call i32 @wc_InitMd5_ex(ptr noundef %hash, ptr noundef %2, i32 noundef %3)
  store i32 %call, ptr %ret, align 4
  br label %sw.epilog

sw.bb1:                                           ; preds = %entry
  %4 = load ptr, ptr %hmac.addr, align 8
  %hash2 = getelementptr inbounds %struct.Hmac, ptr %4, i32 0, i32 0
  %5 = load ptr, ptr %heap.addr, align 8
  %6 = load i32, ptr %devId, align 4
  %call3 = call i32 @wc_InitSha_ex(ptr noundef %hash2, ptr noundef %5, i32 noundef %6)
  store i32 %call3, ptr %ret, align 4
  br label %sw.epilog

sw.bb4:                                           ; preds = %entry
  %7 = load ptr, ptr %hmac.addr, align 8
  %hash5 = getelementptr inbounds %struct.Hmac, ptr %7, i32 0, i32 0
  %8 = load ptr, ptr %heap.addr, align 8
  %9 = load i32, ptr %devId, align 4
  %call6 = call i32 @wc_InitSha224_ex(ptr noundef %hash5, ptr noundef %8, i32 noundef %9)
  store i32 %call6, ptr %ret, align 4
  br label %sw.epilog

sw.bb7:                                           ; preds = %entry
  %10 = load ptr, ptr %hmac.addr, align 8
  %hash8 = getelementptr inbounds %struct.Hmac, ptr %10, i32 0, i32 0
  %11 = load ptr, ptr %heap.addr, align 8
  %12 = load i32, ptr %devId, align 4
  %call9 = call i32 @wc_InitSha256_ex(ptr noundef %hash8, ptr noundef %11, i32 noundef %12)
  store i32 %call9, ptr %ret, align 4
  br label %sw.epilog

sw.bb10:                                          ; preds = %entry
  %13 = load ptr, ptr %hmac.addr, align 8
  %hash11 = getelementptr inbounds %struct.Hmac, ptr %13, i32 0, i32 0
  %14 = load ptr, ptr %heap.addr, align 8
  %15 = load i32, ptr %devId, align 4
  %call12 = call i32 @wc_InitSha384_ex(ptr noundef %hash11, ptr noundef %14, i32 noundef %15)
  store i32 %call12, ptr %ret, align 4
  br label %sw.epilog

sw.bb13:                                          ; preds = %entry
  %16 = load ptr, ptr %hmac.addr, align 8
  %hash14 = getelementptr inbounds %struct.Hmac, ptr %16, i32 0, i32 0
  %17 = load ptr, ptr %heap.addr, align 8
  %18 = load i32, ptr %devId, align 4
  %call15 = call i32 @wc_InitSha512_ex(ptr noundef %hash14, ptr noundef %17, i32 noundef %18)
  store i32 %call15, ptr %ret, align 4
  br label %sw.epilog

sw.bb16:                                          ; preds = %entry
  %19 = load ptr, ptr %hmac.addr, align 8
  %hash17 = getelementptr inbounds %struct.Hmac, ptr %19, i32 0, i32 0
  %20 = load ptr, ptr %heap.addr, align 8
  %21 = load i32, ptr %devId, align 4
  %call18 = call i32 @wc_InitSha3_224(ptr noundef %hash17, ptr noundef %20, i32 noundef %21)
  store i32 %call18, ptr %ret, align 4
  br label %sw.epilog

sw.bb19:                                          ; preds = %entry
  %22 = load ptr, ptr %hmac.addr, align 8
  %hash20 = getelementptr inbounds %struct.Hmac, ptr %22, i32 0, i32 0
  %23 = load ptr, ptr %heap.addr, align 8
  %24 = load i32, ptr %devId, align 4
  %call21 = call i32 @wc_InitSha3_256(ptr noundef %hash20, ptr noundef %23, i32 noundef %24)
  store i32 %call21, ptr %ret, align 4
  br label %sw.epilog

sw.bb22:                                          ; preds = %entry
  %25 = load ptr, ptr %hmac.addr, align 8
  %hash23 = getelementptr inbounds %struct.Hmac, ptr %25, i32 0, i32 0
  %26 = load ptr, ptr %heap.addr, align 8
  %27 = load i32, ptr %devId, align 4
  %call24 = call i32 @wc_InitSha3_384(ptr noundef %hash23, ptr noundef %26, i32 noundef %27)
  store i32 %call24, ptr %ret, align 4
  br label %sw.epilog

sw.bb25:                                          ; preds = %entry
  %28 = load ptr, ptr %hmac.addr, align 8
  %hash26 = getelementptr inbounds %struct.Hmac, ptr %28, i32 0, i32 0
  %29 = load ptr, ptr %heap.addr, align 8
  %30 = load i32, ptr %devId, align 4
  %call27 = call i32 @wc_InitSha3_512(ptr noundef %hash26, ptr noundef %29, i32 noundef %30)
  store i32 %call27, ptr %ret, align 4
  br label %sw.epilog

sw.default:                                       ; preds = %entry
  store i32 -173, ptr %ret, align 4
  br label %sw.epilog

sw.epilog:                                        ; preds = %sw.default, %sw.bb25, %sw.bb22, %sw.bb19, %sw.bb16, %sw.bb13, %sw.bb10, %sw.bb7, %sw.bb4, %sw.bb1, %sw.bb
  %31 = load ptr, ptr %heap.addr, align 8
  %32 = load ptr, ptr %hmac.addr, align 8
  %heap28 = getelementptr inbounds %struct.Hmac, ptr %32, i32 0, i32 4
  store ptr %31, ptr %heap28, align 16
  %33 = load i32, ptr %ret, align 4
  ret i32 %33
}