; Function Attrs: nounwind uwtable
define i32 @_InitHmac(ptr noundef %hmac, i32 noundef %type, ptr noundef %heap) local_unnamed_addr #1 {
entry:
  switch i32 %type, label %sw.epilog [
    i32 3, label %sw.bb
    i32 4, label %sw.bb1
    i32 5, label %sw.bb4
    i32 6, label %sw.bb7
    i32 7, label %sw.bb10
    i32 8, label %sw.bb13
    i32 10, label %sw.bb16
    i32 11, label %sw.bb19
    i32 12, label %sw.bb22
    i32 13, label %sw.bb25
  ]

sw.bb:                                            ; preds = %entry
  %call = tail call i32 @wc_InitMd5_ex(ptr noundef %hmac, ptr noundef %heap, i32 noundef -2) #8
  br label %sw.epilog

sw.bb1:                                           ; preds = %entry
  %call3 = tail call i32 @wc_InitSha_ex(ptr noundef %hmac, ptr noundef %heap, i32 noundef -2) #8
  br label %sw.epilog

sw.bb4:                                           ; preds = %entry
  %call6 = tail call i32 @wc_InitSha224_ex(ptr noundef %hmac, ptr noundef %heap, i32 noundef -2) #8
  br label %sw.epilog

sw.bb7:                                           ; preds = %entry
  %call9 = tail call i32 @wc_InitSha256_ex(ptr noundef %hmac, ptr noundef %heap, i32 noundef -2) #8
  br label %sw.epilog

sw.bb10:                                          ; preds = %entry
  %call12 = tail call i32 @wc_InitSha384_ex(ptr noundef %hmac, ptr noundef %heap, i32 noundef -2) #8
  br label %sw.epilog

sw.bb13:                                          ; preds = %entry
  %call15 = tail call i32 @wc_InitSha512_ex(ptr noundef %hmac, ptr noundef %heap, i32 noundef -2) #8
  br label %sw.epilog

sw.bb16:                                          ; preds = %entry
  %call18 = tail call i32 @wc_InitSha3_224(ptr noundef %hmac, ptr noundef %heap, i32 noundef -2) #8
  br label %sw.epilog

sw.bb19:                                          ; preds = %entry
  %call21 = tail call i32 @wc_InitSha3_256(ptr noundef %hmac, ptr noundef %heap, i32 noundef -2) #8
  br label %sw.epilog

sw.bb22:                                          ; preds = %entry
  %call24 = tail call i32 @wc_InitSha3_384(ptr noundef %hmac, ptr noundef %heap, i32 noundef -2) #8
  br label %sw.epilog

sw.bb25:                                          ; preds = %entry
  %call27 = tail call i32 @wc_InitSha3_512(ptr noundef %hmac, ptr noundef %heap, i32 noundef -2) #8
  br label %sw.epilog

sw.epilog:                                        ; preds = %entry, %sw.bb25, %sw.bb22, %sw.bb19, %sw.bb16, %sw.bb13, %sw.bb10, %sw.bb7, %sw.bb4, %sw.bb1, %sw.bb
  %ret.0 = phi i32 [ %call27, %sw.bb25 ], [ %call24, %sw.bb22 ], [ %call21, %sw.bb19 ], [ %call18, %sw.bb16 ], [ %call15, %sw.bb13 ], [ %call12, %sw.bb10 ], [ %call9, %sw.bb7 ], [ %call6, %sw.bb4 ], [ %call3, %sw.bb1 ], [ %call, %sw.bb ], [ -173, %entry ]
  %heap28 = getelementptr inbounds nuw i8, ptr %hmac, i64 768
  store ptr %heap, ptr %heap28, align 16
  ret i32 %ret.0
}